target datalayout = "e-m:e-p270:32:32-p271:32:32-p272:64:64-i64:64-i128:128-f80:128-n8:16:32:64-S128"
target triple = "x86_64-pc-linux-gnu"

%struct.SHA1Context = type { [5 x i32], [2 x i32], [64 x i8] }

@hash_finish.zEncode = internal constant [17 x i8] c"0123456789abcdef\00", align 16
@.str.165 = private unnamed_addr constant [2 x i8] c"\80\00", align 1
@.str.166 = private unnamed_addr constant [2 x i8] zeroinitializer, align 1

; Function Attrs: nounwind uwtable
define internal void @hash_step(ptr noundef %0, ptr noundef %1, i32 noundef %2) #0 {
  %4 = alloca ptr, align 8
  %5 = alloca ptr, align 8
  %6 = alloca i32, align 4
  %7 = alloca i32, align 4
  %8 = alloca i32, align 4
  store ptr %0, ptr %4, align 8, !tbaa !568
  store ptr %1, ptr %5, align 8, !tbaa !36
  store i32 %2, ptr %6, align 4, !tbaa !3
  call void @llvm.lifetime.start.p0(i64 4, ptr %7) #14
  call void @llvm.lifetime.start.p0(i64 4, ptr %8) #14
  %9 = load ptr, ptr %4, align 8, !tbaa !568
  %10 = getelementptr inbounds nuw %struct.SHA1Context, ptr %9, i32 0, i32 1
  %11 = getelementptr inbounds [2 x i32], ptr %10, i64 0, i64 0
  %12 = load i32, ptr %11, align 4, !tbaa !3
  store i32 %12, ptr %8, align 4, !tbaa !3
  %13 = load i32, ptr %6, align 4, !tbaa !3
  %14 = shl i32 %13, 3
  %15 = load ptr, ptr %4, align 8, !tbaa !568
  %16 = getelementptr inbounds nuw %struct.SHA1Context, ptr %15, i32 0, i32 1
  %17 = getelementptr inbounds [2 x i32], ptr %16, i64 0, i64 0
  %18 = load i32, ptr %17, align 4, !tbaa !3
  %19 = add i32 %18, %14
  store i32 %19, ptr %17, align 4, !tbaa !3
  %20 = load i32, ptr %8, align 4, !tbaa !3
  %21 = icmp ult i32 %19, %20
  br i1 %21, label %22, label %31

22:                                               ; preds = %3
  %23 = load i32, ptr %6, align 4, !tbaa !3
  %24 = lshr i32 %23, 29
  %25 = add i32 %24, 1
  %26 = load ptr, ptr %4, align 8, !tbaa !568
  %27 = getelementptr inbounds nuw %struct.SHA1Context, ptr %26, i32 0, i32 1
  %28 = getelementptr inbounds [2 x i32], ptr %27, i64 0, i64 1
  %29 = load i32, ptr %28, align 4, !tbaa !3
  %30 = add i32 %29, %25
  store i32 %30, ptr %28, align 4, !tbaa !3
  br label %31

31:                                               ; preds = %22, %3
  %32 = load i32, ptr %8, align 4, !tbaa !3
  %33 = lshr i32 %32, 3
  %34 = and i32 %33, 63
  store i32 %34, ptr %8, align 4, !tbaa !3
  %35 = load i32, ptr %8, align 4, !tbaa !3
  %36 = load i32, ptr %6, align 4, !tbaa !3
  %37 = add i32 %35, %36
  %38 = icmp ugt i32 %37, 63
  br i1 %38, label %39, label %72

39:                                               ; preds = %31
  %40 = load ptr, ptr %4, align 8, !tbaa !568
  %41 = getelementptr inbounds nuw %struct.SHA1Context, ptr %40, i32 0, i32 2
  %42 = load i32, ptr %8, align 4, !tbaa !3
  %43 = zext i32 %42 to i64
  %44 = getelementptr inbounds nuw [64 x i8], ptr %41, i64 0, i64 %43
  %45 = load ptr, ptr %5, align 8, !tbaa !36
  %46 = load i32, ptr %8, align 4, !tbaa !3
  %47 = sub i32 64, %46
  store i32 %47, ptr %7, align 4, !tbaa !3
  %48 = zext i32 %47 to i64
  call void @llvm.memcpy.p0.p0.i64(ptr align 1 %44, ptr align 1 %45, i64 %48, i1 false)
  %49 = load ptr, ptr %4, align 8, !tbaa !568
  %50 = getelementptr inbounds nuw %struct.SHA1Context, ptr %49, i32 0, i32 0
  %51 = getelementptr inbounds [5 x i32], ptr %50, i64 0, i64 0
  %52 = load ptr, ptr %4, align 8, !tbaa !568
  %53 = getelementptr inbounds nuw %struct.SHA1Context, ptr %52, i32 0, i32 2
  %54 = getelementptr inbounds [64 x i8], ptr %53, i64 0, i64 0
  call void @SHA1Transform(ptr noundef %51, ptr noundef %54)
  br label %55

55:                                               ; preds = %68, %39
  %56 = load i32, ptr %7, align 4, !tbaa !3
  %57 = add i32 %56, 63
  %58 = load i32, ptr %6, align 4, !tbaa !3
  %59 = icmp ult i32 %57, %58
  br i1 %59, label %60, label %71

60:                                               ; preds = %55
  %61 = load ptr, ptr %4, align 8, !tbaa !568
  %62 = getelementptr inbounds nuw %struct.SHA1Context, ptr %61, i32 0, i32 0
  %63 = getelementptr inbounds [5 x i32], ptr %62, i64 0, i64 0
  %64 = load ptr, ptr %5, align 8, !tbaa !36
  %65 = load i32, ptr %7, align 4, !tbaa !3
  %66 = zext i32 %65 to i64
  %67 = getelementptr inbounds nuw i8, ptr %64, i64 %66
  call void @SHA1Transform(ptr noundef %63, ptr noundef %67)
  br label %68

68:                                               ; preds = %60
  %69 = load i32, ptr %7, align 4, !tbaa !3
  %70 = add i32 %69, 64
  store i32 %70, ptr %7, align 4, !tbaa !3
  br label %55, !llvm.loop !570

71:                                               ; preds = %55
  store i32 0, ptr %8, align 4, !tbaa !3
  br label %73

72:                                               ; preds = %31
  store i32 0, ptr %7, align 4, !tbaa !3
  br label %73

73:                                               ; preds = %72, %71
  %74 = load ptr, ptr %4, align 8, !tbaa !568
  %75 = getelementptr inbounds nuw %struct.SHA1Context, ptr %74, i32 0, i32 2
  %76 = load i32, ptr %8, align 4, !tbaa !3
  %77 = zext i32 %76 to i64
  %78 = getelementptr inbounds nuw [64 x i8], ptr %75, i64 0, i64 %77
  %79 = load ptr, ptr %5, align 8, !tbaa !36
  %80 = load i32, ptr %7, align 4, !tbaa !3
  %81 = zext i32 %80 to i64
  %82 = getelementptr inbounds nuw i8, ptr %79, i64 %81
  %83 = load i32, ptr %6, align 4, !tbaa !3
  %84 = load i32, ptr %7, align 4, !tbaa !3
  %85 = sub i32 %83, %84
  %86 = zext i32 %85 to i64
  call void @llvm.memcpy.p0.p0.i64(ptr align 1 %78, ptr align 1 %82, i64 %86, i1 false)
  call void @llvm.lifetime.end.p0(i64 4, ptr %8) #14
  call void @llvm.lifetime.end.p0(i64 4, ptr %7) #14
  ret void
}

; Function Attrs: nounwind uwtable
define internal void @hash_finish(ptr noundef %0, ptr noundef %1, i32 noundef %2) #0 {
  %4 = alloca ptr, align 8
  %5 = alloca ptr, align 8
  %6 = alloca i32, align 4
  %7 = alloca i32, align 4
  %8 = alloca [8 x i8], align 1
  %9 = alloca [20 x i8], align 16
  store ptr %0, ptr %4, align 8, !tbaa !568
  store ptr %1, ptr %5, align 8, !tbaa !36
  store i32 %2, ptr %6, align 4, !tbaa !3
  call void @llvm.lifetime.start.p0(i64 4, ptr %7) #14
  call void @llvm.lifetime.start.p0(i64 8, ptr %8) #14
  call void @llvm.lifetime.start.p0(i64 20, ptr %9) #14
  store i32 0, ptr %7, align 4, !tbaa !3
  br label %10

10:                                               ; preds = %32, %3
  %11 = load i32, ptr %7, align 4, !tbaa !3
  %12 = icmp ult i32 %11, 8
  br i1 %12, label %13, label %35

13:                                               ; preds = %10
  %14 = load ptr, ptr %4, align 8, !tbaa !568
  %15 = getelementptr inbounds nuw %struct.SHA1Context, ptr %14, i32 0, i32 1
  %16 = load i32, ptr %7, align 4, !tbaa !3
  %17 = icmp uge i32 %16, 4
  %18 = select i1 %17, i32 0, i32 1
  %19 = sext i32 %18 to i64
  %20 = getelementptr inbounds [2 x i32], ptr %15, i64 0, i64 %19
  %21 = load i32, ptr %20, align 4, !tbaa !3
  %22 = load i32, ptr %7, align 4, !tbaa !3
  %23 = and i32 %22, 3
  %24 = sub i32 3, %23
  %25 = mul i32 %24, 8
  %26 = lshr i32 %21, %25
  %27 = and i32 %26, 255
  %28 = trunc i32 %27 to i8
  %29 = load i32, ptr %7, align 4, !tbaa !3
  %30 = zext i32 %29 to i64
  %31 = getelementptr inbounds nuw [8 x i8], ptr %8, i64 0, i64 %30
  store i8 %28, ptr %31, align 1, !tbaa !40
  br label %32

32:                                               ; preds = %13
  %33 = load i32, ptr %7, align 4, !tbaa !3
  %34 = add i32 %33, 1
  store i32 %34, ptr %7, align 4, !tbaa !3
  br label %10, !llvm.loop !571

35:                                               ; preds = %10
  %36 = load ptr, ptr %4, align 8, !tbaa !568
  call void @hash_step(ptr noundef %36, ptr noundef @.str.165, i32 noundef 1)
  br label %37

37:                                               ; preds = %44, %35
  %38 = load ptr, ptr %4, align 8, !tbaa !568
  %39 = getelementptr inbounds nuw %struct.SHA1Context, ptr %38, i32 0, i32 1
  %40 = getelementptr inbounds [2 x i32], ptr %39, i64 0, i64 0
  %41 = load i32, ptr %40, align 4, !tbaa !3
  %42 = and i32 %41, 504
  %43 = icmp ne i32 %42, 448
  br i1 %43, label %44, label %46

44:                                               ; preds = %37
  %45 = load ptr, ptr %4, align 8, !tbaa !568
  call void @hash_step(ptr noundef %45, ptr noundef @.str.166, i32 noundef 1)
  br label %37, !llvm.loop !572

46:                                               ; preds = %37
  %47 = load ptr, ptr %4, align 8, !tbaa !568
  %48 = getelementptr inbounds [8 x i8], ptr %8, i64 0, i64 0
  call void @hash_step(ptr noundef %47, ptr noundef %48, i32 noundef 8)
  store i32 0, ptr %7, align 4, !tbaa !3
  br label %49

49:                                               ; preds = %70, %46
  %50 = load i32, ptr %7, align 4, !tbaa !3
  %51 = icmp ult i32 %50, 20
  br i1 %51, label %52, label %73

52:                                               ; preds = %49
  %53 = load ptr, ptr %4, align 8, !tbaa !568
  %54 = getelementptr inbounds nuw %struct.SHA1Context, ptr %53, i32 0, i32 0
  %55 = load i32, ptr %7, align 4, !tbaa !3
  %56 = lshr i32 %55, 2
  %57 = zext i32 %56 to i64
  %58 = getelementptr inbounds nuw [5 x i32], ptr %54, i64 0, i64 %57
  %59 = load i32, ptr %58, align 4, !tbaa !3
  %60 = load i32, ptr %7, align 4, !tbaa !3
  %61 = and i32 %60, 3
  %62 = sub i32 3, %61
  %63 = mul i32 %62, 8
  %64 = lshr i32 %59, %63
  %65 = and i32 %64, 255
  %66 = trunc i32 %65 to i8
  %67 = load i32, ptr %7, align 4, !tbaa !3
  %68 = zext i32 %67 to i64
  %69 = getelementptr inbounds nuw [20 x i8], ptr %9, i64 0, i64 %68
  store i8 %66, ptr %69, align 1, !tbaa !40
  br label %70

70:                                               ; preds = %52
  %71 = load i32, ptr %7, align 4, !tbaa !3
  %72 = add i32 %71, 1
  store i32 %72, ptr %7, align 4, !tbaa !3
  br label %49, !llvm.loop !573

73:                                               ; preds = %49
  %74 = load i32, ptr %6, align 4, !tbaa !3
  %75 = icmp ne i32 %74, 0
  br i1 %75, label %76, label %79

76:                                               ; preds = %73
  %77 = load ptr, ptr %5, align 8, !tbaa !36
  %78 = getelementptr inbounds [20 x i8], ptr %9, i64 0, i64 0
  call void @llvm.memcpy.p0.p0.i64(ptr align 1 %77, ptr align 16 %78, i64 20, i1 false)
  br label %123

79:                                               ; preds = %73
  store i32 0, ptr %7, align 4, !tbaa !3
  br label %80

80:                                               ; preds = %114, %79
  %81 = load i32, ptr %7, align 4, !tbaa !3
  %82 = icmp ult i32 %81, 20
  br i1 %82, label %83, label %117

83:                                               ; preds = %80
  %84 = load i32, ptr %7, align 4, !tbaa !3
  %85 = zext i32 %84 to i64
  %86 = getelementptr inbounds nuw [20 x i8], ptr %9, i64 0, i64 %85
  %87 = load i8, ptr %86, align 1, !tbaa !40
  %88 = zext i8 %87 to i32
  %89 = ashr i32 %88, 4
  %90 = and i32 %89, 15
  %91 = sext i32 %90 to i64
  %92 = getelementptr inbounds [17 x i8], ptr @hash_finish.zEncode, i64 0, i64 %91
  %93 = load i8, ptr %92, align 1, !tbaa !40
  %94 = load ptr, ptr %5, align 8, !tbaa !36
  %95 = load i32, ptr %7, align 4, !tbaa !3
  %96 = mul i32 %95, 2
  %97 = zext i32 %96 to i64
  %98 = getelementptr inbounds nuw i8, ptr %94, i64 %97
  store i8 %93, ptr %98, align 1, !tbaa !40
  %99 = load i32, ptr %7, align 4, !tbaa !3
  %100 = zext i32 %99 to i64
  %101 = getelementptr inbounds nuw [20 x i8], ptr %9, i64 0, i64 %100
  %102 = load i8, ptr %101, align 1, !tbaa !40
  %103 = zext i8 %102 to i32
  %104 = and i32 %103, 15
  %105 = sext i32 %104 to i64
  %106 = getelementptr inbounds [17 x i8], ptr @hash_finish.zEncode, i64 0, i64 %105
  %107 = load i8, ptr %106, align 1, !tbaa !40
  %108 = load ptr, ptr %5, align 8, !tbaa !36
  %109 = load i32, ptr %7, align 4, !tbaa !3
  %110 = mul i32 %109, 2
  %111 = add i32 %110, 1
  %112 = zext i32 %111 to i64
  %113 = getelementptr inbounds nuw i8, ptr %108, i64 %112
  store i8 %107, ptr %113, align 1, !tbaa !40
  br label %114

114:                                              ; preds = %83
  %115 = load i32, ptr %7, align 4, !tbaa !3
  %116 = add i32 %115, 1
  store i32 %116, ptr %7, align 4, !tbaa !3
  br label %80, !llvm.loop !574

117:                                              ; preds = %80
  %118 = load ptr, ptr %5, align 8, !tbaa !36
  %119 = load i32, ptr %7, align 4, !tbaa !3
  %120 = mul i32 %119, 2
  %121 = zext i32 %120 to i64
  %122 = getelementptr inbounds nuw i8, ptr %118, i64 %121
  store i8 0, ptr %122, align 1, !tbaa !40
  br label %123

123:                                              ; preds = %117, %76
  call void @llvm.lifetime.end.p0(i64 20, ptr %9) #14
  call void @llvm.lifetime.end.p0(i64 8, ptr %8) #14
  call void @llvm.lifetime.end.p0(i64 4, ptr %7) #14
  ret void
}