; Function Attrs: nofree norecurse nosync nounwind memory(argmem: readwrite) uwtable
define internal fastcc void @hash_finish(ptr noundef nonnull captures(none) %0, ptr noundef nonnull writeonly captures(none) %1, i32 noundef range(i32 0, 2) %2) unnamed_addr #26 {
  %4 = alloca [8 x i8], align 8
  %5 = alloca [20 x i8], align 16
  call void @llvm.lifetime.start.p0(i64 8, ptr nonnull %4) #43
  call void @llvm.lifetime.start.p0(i64 20, ptr nonnull %5) #43
  %6 = getelementptr inbounds nuw i8, ptr %0, i64 20
  br label %7

7:                                                ; preds = %3, %7
  %indvars.iv = phi i64 [ 0, %3 ], [ %indvars.iv.next, %7 ]
  %8 = icmp samesign ult i64 %indvars.iv, 4
  %9 = zext i1 %8 to i64
  %10 = getelementptr inbounds nuw [2 x i32], ptr %6, i64 0, i64 %9
  %11 = load i32, ptr %10, align 4, !tbaa !36
  %indvars.iv.tr = trunc i64 %indvars.iv to i32
  %12 = shl i32 %indvars.iv.tr, 3
  %13 = and i32 %12, 24
  %14 = xor i32 %13, 24
  %15 = lshr i32 %11, %14
  %16 = trunc i32 %15 to i8
  %17 = getelementptr inbounds nuw [8 x i8], ptr %4, i64 0, i64 %indvars.iv
  store i8 %16, ptr %17, align 1, !tbaa !25
  %indvars.iv.next = add nuw nsw i64 %indvars.iv, 1
  %exitcond.not = icmp eq i64 %indvars.iv.next, 8
  br i1 %exitcond.not, label %18, label %7, !llvm.loop !694

18:                                               ; preds = %7
  %19 = load i32, ptr %6, align 4, !tbaa !36
  %20 = add i32 %19, 8
  store i32 %20, ptr %6, align 4, !tbaa !36
  %21 = icmp ugt i32 %19, -9
  br i1 %21, label %22, label %26

22:                                               ; preds = %18
  %23 = getelementptr inbounds nuw i8, ptr %0, i64 24
  %24 = load i32, ptr %23, align 4, !tbaa !36
  %25 = add i32 %24, 1
  store i32 %25, ptr %23, align 4, !tbaa !36
  br label %26

26:                                               ; preds = %22, %18
  %27 = lshr i32 %19, 3
  %28 = and i32 %27, 63
  %29 = icmp eq i32 %28, 63
  br i1 %29, label %30, label %33

30:                                               ; preds = %26
  %31 = getelementptr inbounds nuw i8, ptr %0, i64 28
  %32 = getelementptr inbounds nuw i8, ptr %0, i64 91
  store i8 -128, ptr %32, align 1
  tail call fastcc void @SHA1Transform(ptr noundef nonnull %0, ptr noundef nonnull %31)
  %.pre = load i32, ptr %6, align 4, !tbaa !36
  br label %hash_step.exit

33:                                               ; preds = %26
  %34 = zext nneg i32 %28 to i64
  br label %hash_step.exit

hash_step.exit:                                   ; preds = %30, %33
  %35 = phi i32 [ %20, %33 ], [ %.pre, %30 ]
  %.1.i = phi i32 [ 0, %33 ], [ 1, %30 ]
  %.0.i = phi i64 [ %34, %33 ], [ 0, %30 ]
  %36 = getelementptr inbounds nuw i8, ptr %0, i64 28
  %37 = getelementptr inbounds nuw [64 x i8], ptr %36, i64 0, i64 %.0.i
  %38 = zext nneg i32 %.1.i to i64
  %39 = getelementptr inbounds nuw i8, ptr @.str.165, i64 %38
  %40 = xor i32 %.1.i, 1
  %41 = zext nneg i32 %40 to i64
  tail call void @llvm.memcpy.p0.p0.i64(ptr nonnull align 1 %37, ptr nonnull readonly align 1 %39, i64 %41, i1 false)
  %42 = and i32 %35, 504
  %.not39 = icmp eq i32 %42, 448
  br i1 %.not39, label %._crit_edge, label %.lr.ph

.lr.ph:                                           ; preds = %hash_step.exit
  %43 = getelementptr inbounds nuw i8, ptr %0, i64 24
  %44 = getelementptr inbounds nuw i8, ptr %0, i64 91
  br label %45

45:                                               ; preds = %.lr.ph, %hash_step.exit32
  %46 = phi i32 [ %35, %.lr.ph ], [ %59, %hash_step.exit32 ]
  %47 = add i32 %46, 8
  store i32 %47, ptr %6, align 4, !tbaa !36
  %48 = icmp ugt i32 %46, -9
  br i1 %48, label %49, label %52

49:                                               ; preds = %45
  %50 = load i32, ptr %43, align 4, !tbaa !36
  %51 = add i32 %50, 1
  store i32 %51, ptr %43, align 4, !tbaa !36
  br label %52

52:                                               ; preds = %49, %45
  %53 = lshr i32 %46, 3
  %54 = and i32 %53, 63
  %55 = icmp eq i32 %54, 63
  br i1 %55, label %56, label %57

56:                                               ; preds = %52
  store i8 0, ptr %44, align 1
  tail call fastcc void @SHA1Transform(ptr noundef nonnull %0, ptr noundef nonnull %36)
  %.pre53 = load i32, ptr %6, align 4, !tbaa !36
  br label %hash_step.exit32

57:                                               ; preds = %52
  %58 = zext nneg i32 %54 to i64
  br label %hash_step.exit32

hash_step.exit32:                                 ; preds = %56, %57
  %59 = phi i32 [ %47, %57 ], [ %.pre53, %56 ]
  %.1.i28 = phi i32 [ 0, %57 ], [ 1, %56 ]
  %.0.i29 = phi i64 [ %58, %57 ], [ 0, %56 ]
  %60 = getelementptr inbounds nuw [64 x i8], ptr %36, i64 0, i64 %.0.i29
  %61 = zext nneg i32 %.1.i28 to i64
  %62 = getelementptr inbounds nuw i8, ptr @.str.166, i64 %61
  %63 = xor i32 %.1.i28, 1
  %64 = zext nneg i32 %63 to i64
  tail call void @llvm.memcpy.p0.p0.i64(ptr nonnull align 1 %60, ptr nonnull readonly align 1 %62, i64 %64, i1 false)
  %65 = and i32 %59, 504
  %.not = icmp eq i32 %65, 448
  br i1 %.not, label %._crit_edge, label %45, !llvm.loop !695

._crit_edge:                                      ; preds = %hash_step.exit32, %hash_step.exit
  %.lcssa = phi i32 [ %35, %hash_step.exit ], [ %59, %hash_step.exit32 ]
  %66 = add i32 %.lcssa, 64
  store i32 %66, ptr %6, align 4, !tbaa !36
  %67 = icmp ugt i32 %.lcssa, -65
  br i1 %67, label %68, label %hash_step.exit37

68:                                               ; preds = %._crit_edge
  %69 = getelementptr inbounds nuw i8, ptr %0, i64 24
  %70 = load i32, ptr %69, align 4, !tbaa !36
  %71 = add i32 %70, 1
  store i32 %71, ptr %69, align 4, !tbaa !36
  br label %hash_step.exit37

hash_step.exit37:                                 ; preds = %._crit_edge, %68
  %72 = getelementptr inbounds nuw i8, ptr %0, i64 84
  %73 = load i64, ptr %4, align 8
  store i64 %73, ptr %72, align 1
  tail call fastcc void @SHA1Transform(ptr noundef nonnull %0, ptr noundef nonnull %36)
  br label %74

74:                                               ; preds = %hash_step.exit37, %74
  %indvars.iv45 = phi i64 [ 0, %hash_step.exit37 ], [ %indvars.iv.next46, %74 ]
  %75 = lshr i64 %indvars.iv45, 2
  %76 = and i64 %75, 1073741823
  %77 = getelementptr inbounds nuw [5 x i32], ptr %0, i64 0, i64 %76
  %78 = load i32, ptr %77, align 4, !tbaa !36
  %indvars.iv45.tr = trunc i64 %indvars.iv45 to i32
  %79 = shl i32 %indvars.iv45.tr, 3
  %80 = and i32 %79, 24
  %81 = xor i32 %80, 24
  %82 = lshr i32 %78, %81
  %83 = trunc i32 %82 to i8
  %84 = getelementptr inbounds nuw [20 x i8], ptr %5, i64 0, i64 %indvars.iv45
  store i8 %83, ptr %84, align 1, !tbaa !25
  %indvars.iv.next46 = add nuw nsw i64 %indvars.iv45, 1
  %exitcond48.not = icmp eq i64 %indvars.iv.next46, 20
  br i1 %exitcond48.not, label %85, label %74, !llvm.loop !696

85:                                               ; preds = %74
  %.not27 = icmp eq i32 %2, 0
  br i1 %.not27, label %.preheader, label %86

86:                                               ; preds = %85
  call void @llvm.memcpy.p0.p0.i64(ptr noundef nonnull align 1 dereferenceable(20) %1, ptr noundef nonnull align 16 dereferenceable(20) %5, i64 20, i1 false)
  br label %103

.preheader:                                       ; preds = %85, %.preheader
  %indvars.iv49 = phi i64 [ %indvars.iv.next50, %.preheader ], [ 0, %85 ]
  %87 = getelementptr inbounds nuw [20 x i8], ptr %5, i64 0, i64 %indvars.iv49
  %88 = load i8, ptr %87, align 1, !tbaa !25
  %89 = lshr i8 %88, 4
  %90 = zext nneg i8 %89 to i64
  %91 = getelementptr inbounds nuw [17 x i8], ptr @hash_finish.zEncode, i64 0, i64 %90
  %92 = load i8, ptr %91, align 1, !tbaa !25
  %93 = shl nuw nsw i64 %indvars.iv49, 1
  %94 = getelementptr inbounds nuw i8, ptr %1, i64 %93
  store i8 %92, ptr %94, align 1, !tbaa !25
  %95 = and i8 %88, 15
  %96 = zext nneg i8 %95 to i64
  %97 = getelementptr inbounds nuw [17 x i8], ptr @hash_finish.zEncode, i64 0, i64 %96
  %98 = load i8, ptr %97, align 1, !tbaa !25
  %99 = or disjoint i64 %93, 1
  %100 = getelementptr inbounds nuw i8, ptr %1, i64 %99
  store i8 %98, ptr %100, align 1, !tbaa !25
  %indvars.iv.next50 = add nuw nsw i64 %indvars.iv49, 1
  %exitcond52.not = icmp eq i64 %indvars.iv.next50, 20
  br i1 %exitcond52.not, label %101, label %.preheader, !llvm.loop !697

101:                                              ; preds = %.preheader
  %102 = getelementptr inbounds nuw i8, ptr %1, i64 40
  store i8 0, ptr %102, align 1, !tbaa !25
  br label %103

103:                                              ; preds = %101, %86
  call void @llvm.lifetime.end.p0(i64 20, ptr nonnull %5) #43
  call void @llvm.lifetime.end.p0(i64 8, ptr nonnull %4) #43
  ret void
}